target datalayout = "e-m:e-p270:32:32-p271:32:32-p272:64:64-i64:64-i128:128-f80:128-n8:16:32:64-S128"
target triple = "x86_64-pc-linux-gnu"

%struct.dgt_set_t = type { [16 x i8] }
%struct.tvbuff = type { ptr, ptr, i8, i32, ptr, ptr, i32, i32, i32, i32 }

@.str = private unnamed_addr constant [29 x i8] c"%s:%u: failed assertion \22%s\22\00", align 1
@.str.1 = private unnamed_addr constant [14 x i8] c"epan/tvbuff.c\00", align 1
@.str.5 = private unnamed_addr constant [24 x i8] c"tvb && tvb->initialized\00", align 1
@.str.27 = private unnamed_addr constant [1 x i8] zeroinitializer, align 1

; Function Attrs: null_pointer_is_valid sspstrong uwtable
define ptr @tvb_get_bcd_string(ptr noundef %0, ptr noundef %1, i32 noundef %2, i32 noundef %3, ptr noundef %4, i1 noundef zeroext %5, i1 noundef zeroext %6, i1 noundef zeroext %7) #0 {
  %9 = alloca ptr, align 8
  %10 = alloca ptr, align 8
  %11 = alloca ptr, align 8
  %12 = alloca i32, align 4
  %13 = alloca i32, align 4
  %14 = alloca ptr, align 8
  %15 = alloca i8, align 1
  %16 = alloca i8, align 1
  %17 = alloca i8, align 1
  %18 = alloca ptr, align 8
  %19 = alloca i32, align 4
  %20 = alloca ptr, align 8
  %21 = alloca i8, align 1
  %22 = alloca i8, align 1
  %23 = alloca i32, align 4
  store ptr %0, ptr %10, align 8
  store ptr %1, ptr %11, align 8
  store i32 %2, ptr %12, align 4
  store i32 %3, ptr %13, align 4
  store ptr %4, ptr %14, align 8
  %24 = zext i1 %5 to i8
  store i8 %24, ptr %15, align 1
  %25 = zext i1 %6 to i8
  store i8 %25, ptr %16, align 1
  %26 = zext i1 %7 to i8
  store i8 %26, ptr %17, align 1
  call void @llvm.lifetime.start.p0(i64 8, ptr %18) #16
  call void @llvm.lifetime.start.p0(i64 4, ptr %19) #16
  store i32 0, ptr %19, align 4
  call void @llvm.lifetime.start.p0(i64 8, ptr %20) #16
  call void @llvm.lifetime.start.p0(i64 1, ptr %21) #16
  call void @llvm.lifetime.start.p0(i64 1, ptr %22) #16
  %27 = load ptr, ptr %11, align 8
  %28 = icmp ne ptr %27, null
  br i1 %28, label %29, label %35

29:                                               ; preds = %8
  %30 = load ptr, ptr %11, align 8
  %31 = getelementptr inbounds nuw %struct.tvbuff, ptr %30, i32 0, i32 2
  %32 = load i8, ptr %31, align 8, !range !9, !noundef !10
  %33 = trunc i8 %32 to i1
  br i1 %33, label %34, label %35

34:                                               ; preds = %29
  br label %37

35:                                               ; preds = %29, %8
  call void (ptr, ...) @proto_report_dissector_bug(ptr noundef @.str, ptr noundef @.str.1, i32 noundef 4630, ptr noundef @.str.5) #18
  unreachable

36:                                               ; No predecessors!
  br label %37

37:                                               ; preds = %36, %34
  %38 = load i32, ptr %13, align 4
  %39 = icmp eq i32 %38, -1
  br i1 %39, label %40, label %52

40:                                               ; preds = %37
  %41 = load ptr, ptr %11, align 8
  %42 = getelementptr inbounds nuw %struct.tvbuff, ptr %41, i32 0, i32 6
  %43 = load i32, ptr %42, align 8
  store i32 %43, ptr %13, align 4
  %44 = load i32, ptr %13, align 4
  %45 = load i32, ptr %12, align 4
  %46 = icmp slt i32 %44, %45
  br i1 %46, label %47, label %48

47:                                               ; preds = %40
  store ptr @.str.27, ptr %9, align 8
  store i32 1, ptr %23, align 4
  br label %153

48:                                               ; preds = %40
  %49 = load i32, ptr %12, align 4
  %50 = load i32, ptr %13, align 4
  %51 = sub i32 %50, %49
  store i32 %51, ptr %13, align 4
  br label %52

52:                                               ; preds = %48, %37
  %53 = load ptr, ptr %11, align 8
  %54 = load i32, ptr %12, align 4
  %55 = load i32, ptr %13, align 4
  %56 = call ptr @ensure_contiguous(ptr noundef %53, i32 noundef %54, i32 noundef %55)
  store ptr %56, ptr %18, align 8
  %57 = load ptr, ptr %10, align 8
  %58 = load i32, ptr %13, align 4
  %59 = mul i32 %58, 2
  %60 = add i32 %59, 1
  %61 = sext i32 %60 to i64
  %62 = call noalias ptr @wmem_alloc(ptr noundef %57, i64 noundef %61) #19
  store ptr %62, ptr %20, align 8
  br label %63

63:                                               ; preds = %130, %52
  %64 = load i32, ptr %13, align 4
  %65 = icmp sgt i32 %64, 0
  br i1 %65, label %66, label %147

66:                                               ; preds = %63
  %67 = load ptr, ptr %18, align 8
  %68 = load i8, ptr %67, align 1
  store i8 %68, ptr %21, align 1
  %69 = load i8, ptr %15, align 1, !range !9, !noundef !10
  %70 = trunc i8 %69 to i1
  br i1 %70, label %103, label %71

71:                                               ; preds = %66
  %72 = load i8, ptr %17, align 1, !range !9, !noundef !10
  %73 = trunc i8 %72 to i1
  br i1 %73, label %74, label %80

74:                                               ; preds = %71
  %75 = load i8, ptr %21, align 1
  %76 = zext i8 %75 to i32
  %77 = ashr i32 %76, 4
  %78 = and i32 %77, 15
  %79 = trunc i32 %78 to i8
  store i8 %79, ptr %22, align 1
  br label %85

80:                                               ; preds = %71
  %81 = load i8, ptr %21, align 1
  %82 = zext i8 %81 to i32
  %83 = and i32 %82, 15
  %84 = trunc i32 %83 to i8
  store i8 %84, ptr %22, align 1
  br label %85

85:                                               ; preds = %80, %74
  %86 = load i8, ptr %22, align 1
  %87 = zext i8 %86 to i32
  %88 = icmp eq i32 %87, 15
  br i1 %88, label %89, label %90

89:                                               ; preds = %85
  br label %147

90:                                               ; preds = %85
  %91 = load ptr, ptr %14, align 8
  %92 = getelementptr inbounds nuw %struct.dgt_set_t, ptr %91, i32 0, i32 0
  %93 = load i8, ptr %22, align 1
  %94 = zext i8 %93 to i64
  %95 = getelementptr [16 x i8], ptr %92, i64 0, i64 %94
  %96 = load i8, ptr %95, align 1
  %97 = load ptr, ptr %20, align 8
  %98 = load i32, ptr %19, align 4
  %99 = sext i32 %98 to i64
  %100 = getelementptr i8, ptr %97, i64 %99
  store i8 %96, ptr %100, align 1
  %101 = load i32, ptr %19, align 4
  %102 = add i32 %101, 1
  store i32 %102, ptr %19, align 4
  br label %103

103:                                              ; preds = %90, %66
  store i8 0, ptr %15, align 1
  %104 = load i8, ptr %17, align 1, !range !9, !noundef !10
  %105 = trunc i8 %104 to i1
  br i1 %105, label %106, label %111

106:                                              ; preds = %103
  %107 = load i8, ptr %21, align 1
  %108 = zext i8 %107 to i32
  %109 = and i32 %108, 15
  %110 = trunc i32 %109 to i8
  store i8 %110, ptr %22, align 1
  br label %116

111:                                              ; preds = %103
  %112 = load i8, ptr %21, align 1
  %113 = zext i8 %112 to i32
  %114 = ashr i32 %113, 4
  %115 = trunc i32 %114 to i8
  store i8 %115, ptr %22, align 1
  br label %116

116:                                              ; preds = %111, %106
  %117 = load i8, ptr %22, align 1
  %118 = zext i8 %117 to i32
  %119 = icmp eq i32 %118, 15
  br i1 %119, label %120, label %121

120:                                              ; preds = %116
  br label %147

121:                                              ; preds = %116
  %122 = load i32, ptr %13, align 4
  %123 = icmp eq i32 %122, 1
  br i1 %123, label %124, label %130

124:                                              ; preds = %121
  %125 = load i8, ptr %16, align 1, !range !9, !noundef !10
  %126 = trunc i8 %125 to i1
  %127 = zext i1 %126 to i32
  %128 = icmp eq i32 %127, 1
  br i1 %128, label %129, label %130

129:                                              ; preds = %124
  br label %147

130:                                              ; preds = %124, %121
  %131 = load ptr, ptr %14, align 8
  %132 = getelementptr inbounds nuw %struct.dgt_set_t, ptr %131, i32 0, i32 0
  %133 = load i8, ptr %22, align 1
  %134 = zext i8 %133 to i64
  %135 = getelementptr [16 x i8], ptr %132, i64 0, i64 %134
  %136 = load i8, ptr %135, align 1
  %137 = load ptr, ptr %20, align 8
  %138 = load i32, ptr %19, align 4
  %139 = sext i32 %138 to i64
  %140 = getelementptr i8, ptr %137, i64 %139
  store i8 %136, ptr %140, align 1
  %141 = load i32, ptr %19, align 4
  %142 = add i32 %141, 1
  store i32 %142, ptr %19, align 4
  %143 = load ptr, ptr %18, align 8
  %144 = getelementptr i8, ptr %143, i32 1
  store ptr %144, ptr %18, align 8
  %145 = load i32, ptr %13, align 4
  %146 = add i32 %145, -1
  store i32 %146, ptr %13, align 4
  br label %63, !llvm.loop !26

147:                                              ; preds = %129, %120, %89, %63
  %148 = load ptr, ptr %20, align 8
  %149 = load i32, ptr %19, align 4
  %150 = sext i32 %149 to i64
  %151 = getelementptr i8, ptr %148, i64 %150
  store i8 0, ptr %151, align 1
  %152 = load ptr, ptr %20, align 8
  store ptr %152, ptr %9, align 8
  store i32 1, ptr %23, align 4
  br label %153

153:                                              ; preds = %147, %47
  call void @llvm.lifetime.end.p0(i64 1, ptr %22) #16
  call void @llvm.lifetime.end.p0(i64 1, ptr %21) #16
  call void @llvm.lifetime.end.p0(i64 8, ptr %20) #16
  call void @llvm.lifetime.end.p0(i64 4, ptr %19) #16
  call void @llvm.lifetime.end.p0(i64 8, ptr %18) #16
  %154 = load ptr, ptr %9, align 8
  ret ptr %154
}