; Function Attrs: null_pointer_is_valid sspstrong uwtable
define ptr @tvb_get_bcd_string(ptr noundef %0, ptr noundef %1, i32 noundef %2, i32 noundef %3, ptr noundef readonly captures(none) %4, i1 noundef zeroext %5, i1 noundef zeroext %6, i1 noundef zeroext %7) local_unnamed_addr #0 {
  %.not = icmp eq ptr %1, null
  br i1 %.not, label %13, label %9

9:                                                ; preds = %8
  %10 = getelementptr inbounds nuw i8, ptr %1, i64 16
  %11 = load i8, ptr %10, align 8, !range !9, !noundef !10
  %12 = trunc nuw i8 %11 to i1
  br i1 %12, label %14, label %13

13:                                               ; preds = %9, %8
  tail call void (ptr, ...) @proto_report_dissector_bug(ptr noundef nonnull @.str, ptr noundef nonnull @.str.1, i32 noundef 4630, ptr noundef nonnull @.str.5) #18
  unreachable

14:                                               ; preds = %9
  %15 = icmp eq i32 %3, -1
  br i1 %15, label %16, label %22

16:                                               ; preds = %14
  %17 = getelementptr inbounds nuw i8, ptr %1, i64 40
  %18 = load i32, ptr %17, align 8
  %19 = icmp slt i32 %18, %2
  br i1 %19, label %81, label %20

20:                                               ; preds = %16
  %21 = sub i32 %18, %2
  br label %22

22:                                               ; preds = %20, %14
  %.042 = phi i32 [ %21, %20 ], [ %3, %14 ]
  %23 = tail call fastcc ptr @ensure_contiguous(ptr noundef nonnull %1, i32 noundef %2, i32 noundef %.042)
  %24 = shl i32 %.042, 1
  %25 = or disjoint i32 %24, 1
  %26 = sext i32 %25 to i64
  %27 = tail call noalias ptr @wmem_alloc(ptr noundef %0, i64 noundef %26) #20
  %28 = icmp sgt i32 %.042, 0
  br i1 %28, label %.lr.ph, label %._crit_edge

.lr.ph:                                           ; preds = %22
  br i1 %7, label %.lr.ph.split.us, label %.lr.ph.split

.lr.ph.split.us:                                  ; preds = %.lr.ph, %44
  %.14358.us = phi i32 [ %52, %44 ], [ %.042, %.lr.ph ]
  %.04457.us = phi i32 [ %50, %44 ], [ 0, %.lr.ph ]
  %.04656.us = phi ptr [ %51, %44 ], [ %23, %.lr.ph ]
  %.04755.us = phi i1 [ false, %44 ], [ %5, %.lr.ph ]
  %29 = load i8, ptr %.04656.us, align 1
  br i1 %.04755.us, label %40, label %30

30:                                               ; preds = %.lr.ph.split.us
  %31 = lshr i8 %29, 4
  %32 = icmp eq i8 %31, 15
  br i1 %32, label %._crit_edge, label %33

33:                                               ; preds = %30
  %34 = zext nneg i8 %31 to i64
  %35 = getelementptr [16 x i8], ptr %4, i64 0, i64 %34
  %36 = load i8, ptr %35, align 1
  %37 = sext i32 %.04457.us to i64
  %38 = getelementptr i8, ptr %27, i64 %37
  store i8 %36, ptr %38, align 1
  %39 = add i32 %.04457.us, 1
  br label %40

40:                                               ; preds = %33, %.lr.ph.split.us
  %.2.us = phi i32 [ %.04457.us, %.lr.ph.split.us ], [ %39, %33 ]
  %41 = and i8 %29, 15
  %42 = icmp eq i8 %41, 15
  %43 = icmp eq i32 %.14358.us, 1
  %brmerge.not.us = and i1 %6, %43
  %or.cond.us = or i1 %brmerge.not.us, %42
  br i1 %or.cond.us, label %._crit_edge, label %44

44:                                               ; preds = %40
  %45 = zext nneg i8 %41 to i64
  %46 = getelementptr [16 x i8], ptr %4, i64 0, i64 %45
  %47 = load i8, ptr %46, align 1
  %48 = sext i32 %.2.us to i64
  %49 = getelementptr i8, ptr %27, i64 %48
  store i8 %47, ptr %49, align 1
  %50 = add i32 %.2.us, 1
  %51 = getelementptr i8, ptr %.04656.us, i64 1
  %52 = add nsw i32 %.14358.us, -1
  %53 = icmp sgt i32 %.14358.us, 1
  br i1 %53, label %.lr.ph.split.us, label %._crit_edge, !llvm.loop !29

.lr.ph.split:                                     ; preds = %.lr.ph, %69
  %.14358 = phi i32 [ %77, %69 ], [ %.042, %.lr.ph ]
  %.04457 = phi i32 [ %75, %69 ], [ 0, %.lr.ph ]
  %.04656 = phi ptr [ %76, %69 ], [ %23, %.lr.ph ]
  %.04755 = phi i1 [ false, %69 ], [ %5, %.lr.ph ]
  %54 = load i8, ptr %.04656, align 1
  br i1 %.04755, label %65, label %55

55:                                               ; preds = %.lr.ph.split
  %56 = and i8 %54, 15
  %57 = icmp eq i8 %56, 15
  br i1 %57, label %._crit_edge, label %58

58:                                               ; preds = %55
  %59 = zext nneg i8 %56 to i64
  %60 = getelementptr [16 x i8], ptr %4, i64 0, i64 %59
  %61 = load i8, ptr %60, align 1
  %62 = sext i32 %.04457 to i64
  %63 = getelementptr i8, ptr %27, i64 %62
  store i8 %61, ptr %63, align 1
  %64 = add i32 %.04457, 1
  br label %65

65:                                               ; preds = %58, %.lr.ph.split
  %.2 = phi i32 [ %.04457, %.lr.ph.split ], [ %64, %58 ]
  %66 = lshr i8 %54, 4
  %67 = icmp eq i8 %66, 15
  %68 = icmp eq i32 %.14358, 1
  %brmerge.not = and i1 %6, %68
  %or.cond = or i1 %brmerge.not, %67
  br i1 %or.cond, label %._crit_edge, label %69

69:                                               ; preds = %65
  %70 = zext nneg i8 %66 to i64
  %71 = getelementptr [16 x i8], ptr %4, i64 0, i64 %70
  %72 = load i8, ptr %71, align 1
  %73 = sext i32 %.2 to i64
  %74 = getelementptr i8, ptr %27, i64 %73
  store i8 %72, ptr %74, align 1
  %75 = add i32 %.2, 1
  %76 = getelementptr i8, ptr %.04656, i64 1
  %77 = add nsw i32 %.14358, -1
  %78 = icmp sgt i32 %.14358, 1
  br i1 %78, label %.lr.ph.split, label %._crit_edge, !llvm.loop !29

._crit_edge:                                      ; preds = %69, %55, %65, %44, %30, %40, %22
  %.145 = phi i32 [ 0, %22 ], [ %.2.us, %40 ], [ %.04457.us, %30 ], [ %50, %44 ], [ %.2, %65 ], [ %.04457, %55 ], [ %75, %69 ]
  %79 = sext i32 %.145 to i64
  %80 = getelementptr i8, ptr %27, i64 %79
  store i8 0, ptr %80, align 1
  br label %81

81:                                               ; preds = %16, %._crit_edge
  %.041 = phi ptr [ %27, %._crit_edge ], [ @.str.27, %16 ]
  ret ptr %.041
}